; Function Attrs: nounwind uwtable
define dso_local range(i32 0, 6) i32 @rdbTryIntegerEncoding(ptr noundef %0, i64 noundef %1, ptr noundef writeonly captures(none) %2) local_unnamed_addr #0 {
  %4 = alloca i64, align 8
  call void @llvm.lifetime.start.p0(i64 8, ptr nonnull %4) #23
  %5 = call i32 @string2ll(ptr noundef %0, i64 noundef %1, ptr noundef nonnull %4) #23
  %.not = icmp eq i32 %5, 0
  br i1 %.not, label %rdbEncodeInteger.exit, label %6

6:                                                ; preds = %3
  %7 = load i64, ptr %4, align 8, !tbaa !62
  %8 = add i64 %7, 128
  %or.cond.i = icmp ult i64 %8, 256
  br i1 %or.cond.i, label %9, label %10

9:                                                ; preds = %6
  store i8 -64, ptr %2, align 1, !tbaa !59
  br label %.sink.split.i

10:                                               ; preds = %6
  %11 = add i64 %7, 32768
  %or.cond3.i = icmp ult i64 %11, 65536
  br i1 %or.cond3.i, label %12, label %16

12:                                               ; preds = %10
  store i8 -63, ptr %2, align 1, !tbaa !59
  %13 = trunc i64 %7 to i8
  %14 = getelementptr inbounds nuw i8, ptr %2, i64 1
  store i8 %13, ptr %14, align 1, !tbaa !59
  %15 = lshr i64 %7, 8
  br label %.sink.split.i

16:                                               ; preds = %10
  %17 = add i64 %7, 2147483648
  %or.cond5.i = icmp ult i64 %17, 4294967296
  br i1 %or.cond5.i, label %18, label %rdbEncodeInteger.exit

18:                                               ; preds = %16
  store i8 -62, ptr %2, align 1, !tbaa !59
  %19 = trunc i64 %7 to i8
  %20 = getelementptr inbounds nuw i8, ptr %2, i64 1
  store i8 %19, ptr %20, align 1, !tbaa !59
  %21 = lshr i64 %7, 8
  %22 = trunc i64 %21 to i8
  %23 = getelementptr inbounds nuw i8, ptr %2, i64 2
  store i8 %22, ptr %23, align 1, !tbaa !59
  %24 = lshr i64 %7, 16
  %25 = trunc i64 %24 to i8
  %26 = getelementptr inbounds nuw i8, ptr %2, i64 3
  store i8 %25, ptr %26, align 1, !tbaa !59
  %27 = lshr i64 %7, 24
  br label %.sink.split.i

.sink.split.i:                                    ; preds = %18, %12, %9
  %.sink31.i = phi i64 [ %27, %18 ], [ %15, %12 ], [ %7, %9 ]
  %.sink30.i = phi i64 [ 4, %18 ], [ 2, %12 ], [ 1, %9 ]
  %.0.ph.i = phi i32 [ 5, %18 ], [ 3, %12 ], [ 2, %9 ]
  %28 = trunc i64 %.sink31.i to i8
  %29 = getelementptr inbounds nuw i8, ptr %2, i64 %.sink30.i
  store i8 %28, ptr %29, align 1, !tbaa !59
  br label %rdbEncodeInteger.exit

rdbEncodeInteger.exit:                            ; preds = %.sink.split.i, %16, %3
  %.0 = phi i32 [ 0, %3 ], [ 0, %16 ], [ %.0.ph.i, %.sink.split.i ]
  call void @llvm.lifetime.end.p0(i64 8, ptr nonnull %4) #23
  ret i32 %.0
}